; Function Attrs: nounwind uwtable
define ptr @l_Lean_Elab_Command_checkValidCtorModifier___at___private_Lean_Elab_Inductive_0__Lean_Elab_Command_inductiveSyntaxToView___spec__15(ptr noundef %0, ptr noundef %1, ptr noundef %2, ptr noundef %3, ptr noundef %4, ptr noundef %5, ptr noundef %6, ptr noundef %7) local_unnamed_addr #0 {
  %9 = getelementptr inbounds nuw i8, ptr %0, i64 33
  %10 = load i8, ptr %9, align 1, !tbaa !15
  %11 = icmp eq i8 %10, 0
  br i1 %11, label %12, label %14

12:                                               ; preds = %8
  %13 = tail call ptr @l_Lean_Elab_Command_checkValidCtorModifier___at___private_Lean_Elab_Inductive_0__Lean_Elab_Command_inductiveSyntaxToView___spec__15___lambda__3(ptr noundef nonnull %0, ptr nonnull poison, ptr noundef %1, ptr noundef %2, ptr noundef %3, ptr noundef %4, ptr noundef %5, ptr noundef %6, ptr noundef %7)
  br label %54

14:                                               ; preds = %8
  %15 = load ptr, ptr @l_Lean_Elab_Command_checkValidCtorModifier___at___private_Lean_Elab_Inductive_0__Lean_Elab_Command_inductiveSyntaxToView___spec__15___closed__2, align 8, !tbaa !10
  %16 = tail call ptr @l_Lean_throwError___at_Lean_Elab_Term_synthesizeInstMVarCore___spec__3(ptr noundef %15, ptr noundef %1, ptr noundef %2, ptr noundef %3, ptr noundef %4, ptr noundef %5, ptr noundef %6, ptr noundef %7) #6
  %.val = load i32, ptr %16, align 4, !tbaa !4
  %17 = icmp eq i32 %.val, 1
  br i1 %17, label %54, label %18

18:                                               ; preds = %14
  %19 = getelementptr inbounds nuw i8, ptr %16, i64 8
  %20 = load ptr, ptr %19, align 8, !tbaa !10
  %21 = getelementptr inbounds nuw i8, ptr %16, i64 16
  %22 = load ptr, ptr %21, align 8, !tbaa !10
  %23 = ptrtoint ptr %22 to i64
  %24 = and i64 %23, 1
  %.not = icmp eq i64 %24, 0
  br i1 %.not, label %25, label %lean_inc.exit33

25:                                               ; preds = %18
  %.val.i = load i32, ptr %22, align 4, !tbaa !4
  %26 = icmp sgt i32 %.val.i, 0
  br i1 %26, label %27, label %29, !prof !9

27:                                               ; preds = %25
  %28 = add nuw i32 %.val.i, 1
  store i32 %28, ptr %22, align 4, !tbaa !4
  br label %lean_inc.exit33

29:                                               ; preds = %25
  %.not.i34 = icmp eq i32 %.val.i, 0
  br i1 %.not.i34, label %lean_inc.exit33, label %30

30:                                               ; preds = %29
  tail call void @lean_inc_ref_cold(ptr noundef nonnull %22) #6
  br label %lean_inc.exit33

lean_inc.exit33:                                  ; preds = %30, %29, %27, %18
  %31 = ptrtoint ptr %20 to i64
  %32 = and i64 %31, 1
  %.not38 = icmp eq i64 %32, 0
  br i1 %.not38, label %33, label %lean_inc.exit

33:                                               ; preds = %lean_inc.exit33
  %.val.i35 = load i32, ptr %20, align 4, !tbaa !4
  %34 = icmp sgt i32 %.val.i35, 0
  br i1 %34, label %35, label %37, !prof !9

35:                                               ; preds = %33
  %36 = add nuw i32 %.val.i35, 1
  store i32 %36, ptr %20, align 4, !tbaa !4
  br label %lean_inc.exit

37:                                               ; preds = %33
  %.not.i36 = icmp eq i32 %.val.i35, 0
  br i1 %.not.i36, label %lean_inc.exit, label %38

38:                                               ; preds = %37
  tail call void @lean_inc_ref_cold(ptr noundef nonnull %20) #6
  br label %lean_inc.exit

lean_inc.exit:                                    ; preds = %38, %37, %35, %lean_inc.exit33
  %39 = ptrtoint ptr %16 to i64
  %40 = and i64 %39, 1
  %.not39 = icmp eq i64 %40, 0
  br i1 %.not39, label %41, label %lean_dec.exit

41:                                               ; preds = %lean_inc.exit
  %42 = load i32, ptr %16, align 4, !tbaa !4
  %43 = icmp sgt i32 %42, 1
  br i1 %43, label %44, label %46, !prof !9

44:                                               ; preds = %41
  %45 = add nsw i32 %42, -1
  store i32 %45, ptr %16, align 4, !tbaa !4
  br label %lean_dec.exit

46:                                               ; preds = %41
  %.not.i = icmp eq i32 %42, 0
  br i1 %.not.i, label %lean_dec.exit, label %47

47:                                               ; preds = %46
  tail call void @lean_dec_ref_cold(ptr noundef nonnull %16) #6
  br label %lean_dec.exit

lean_dec.exit:                                    ; preds = %47, %46, %44, %lean_inc.exit
  tail call void @lean_inc_heartbeat() #6
  %48 = tail call noalias ptr @mi_malloc_small(i64 noundef 24) #6
  %49 = icmp eq ptr %48, null
  br i1 %49, label %50, label %lean_alloc_ctor.exit

50:                                               ; preds = %lean_dec.exit
  tail call void @lean_internal_panic_out_of_memory() #7
  unreachable

lean_alloc_ctor.exit:                             ; preds = %lean_dec.exit
  %51 = getelementptr inbounds nuw i8, ptr %48, i64 4
  store i32 1, ptr %48, align 4, !tbaa !4
  store i32 16908312, ptr %51, align 4
  %52 = getelementptr inbounds nuw i8, ptr %48, i64 8
  store ptr %20, ptr %52, align 8, !tbaa !10
  %53 = getelementptr inbounds nuw i8, ptr %48, i64 16
  store ptr %22, ptr %53, align 8, !tbaa !10
  br label %54

54:                                               ; preds = %lean_alloc_ctor.exit, %14, %12
  %.0 = phi ptr [ %13, %12 ], [ %48, %lean_alloc_ctor.exit ], [ %16, %14 ]
  ret ptr %.0
}